; Function Attrs: mustprogress uwtable
define hidden noundef zeroext i1 @_ZN15model_evaluator7is_trueERK10ref_vectorI4expr11ast_managerE(ptr nocapture noundef nonnull readonly align 8 dereferenceable(8) %this, ptr nocapture noundef nonnull readonly align 8 dereferenceable(16) %ts) local_unnamed_addr #3 align 2 personality ptr @__gxx_personality_v0 {
entry:
  %tmp.i = alloca %class.obj_ref, align 8
  %m_nodes.i = getelementptr inbounds i8, ptr %ts, i64 8
  %0 = load ptr, ptr %m_nodes.i, align 8
  %cmp.i.i.i = icmp eq ptr %0, null
  br i1 %cmp.i.i.i, label %return, label %_ZNK15ref_vector_coreI4expr19ref_manager_wrapperIS0_11ast_managerEE3endEv.exit

_ZNK15ref_vector_coreI4expr19ref_manager_wrapperIS0_11ast_managerEE3endEv.exit: ; preds = %entry
  %arrayidx.i.i.i = getelementptr inbounds i8, ptr %0, i64 -4
  %1 = load i32, ptr %arrayidx.i.i.i, align 4
  %2 = zext i32 %1 to i64
  %add.ptr.i = getelementptr inbounds ptr, ptr %0, i64 %2
  %cmp.not6 = icmp eq i32 %1, 0
  br i1 %cmp.not6, label %return, label %for.body.lr.ph

for.body.lr.ph:                                   ; preds = %_ZNK15ref_vector_coreI4expr19ref_manager_wrapperIS0_11ast_managerEE3endEv.exit
  %m_manager.i.i = getelementptr inbounds i8, ptr %tmp.i, i64 8
  br label %for.body

for.body:                                         ; preds = %_ZN15model_evaluator7is_trueEP4expr.exit, %for.body.lr.ph
  %__begin1.07 = phi ptr [ %0, %for.body.lr.ph ], [ %incdec.ptr, %_ZN15model_evaluator7is_trueEP4expr.exit ]
  %3 = load ptr, ptr %__begin1.07, align 8
  call void @llvm.lifetime.start.p0(i64 16, ptr nonnull %tmp.i)
  %4 = load ptr, ptr %this, align 8
  %m_manager.i.i.i = getelementptr inbounds i8, ptr %4, i64 8
  %5 = load ptr, ptr %m_manager.i.i.i, align 8
  store ptr null, ptr %tmp.i, align 8
  store ptr %5, ptr %m_manager.i.i, align 8
  %call2.i = invoke noundef zeroext i1 @_ZN15model_evaluator4evalEP4exprR7obj_refIS0_11ast_managerEb(ptr noundef nonnull align 8 dereferenceable(8) %this, ptr noundef %3, ptr noundef nonnull align 8 dereferenceable(16) %tmp.i, i1 noundef zeroext true)
          to label %invoke.cont.i unwind label %lpad.i

invoke.cont.i:                                    ; preds = %for.body
  br i1 %call2.i, label %invoke.cont3.i, label %land.endthread-pre-split.i

invoke.cont3.i:                                   ; preds = %invoke.cont.i
  %6 = load ptr, ptr %this, align 8
  %m_manager.i.i1.i = getelementptr inbounds i8, ptr %6, i64 8
  %7 = load ptr, ptr %m_manager.i.i1.i, align 8
  %8 = load ptr, ptr %tmp.i, align 8
  %m_true.i.i = getelementptr inbounds i8, ptr %7, i64 856
  %9 = load ptr, ptr %m_true.i.i, align 8
  %cmp.i.i = icmp eq ptr %9, %8
  br label %land.end.i

land.endthread-pre-split.i:                       ; preds = %invoke.cont.i
  %.pr.i = load ptr, ptr %tmp.i, align 8
  br label %land.end.i

land.end.i:                                       ; preds = %land.endthread-pre-split.i, %invoke.cont3.i
  %10 = phi ptr [ %.pr.i, %land.endthread-pre-split.i ], [ %8, %invoke.cont3.i ]
  %11 = phi i1 [ false, %land.endthread-pre-split.i ], [ %cmp.i.i, %invoke.cont3.i ]
  %tobool.not.i.i.i = icmp eq ptr %10, null
  br i1 %tobool.not.i.i.i, label %_ZN15model_evaluator7is_trueEP4expr.exit, label %if.then.i.i.i.i

if.then.i.i.i.i:                                  ; preds = %land.end.i
  %12 = load ptr, ptr %m_manager.i.i, align 8
  %m_ref_count.i.i.i.i.i = getelementptr inbounds i8, ptr %10, i64 8
  %13 = load i32, ptr %m_ref_count.i.i.i.i.i, align 4
  %dec.i.i.i.i.i = add i32 %13, -1
  store i32 %dec.i.i.i.i.i, ptr %m_ref_count.i.i.i.i.i, align 4
  %cmp.i.i.i.i = icmp eq i32 %dec.i.i.i.i.i, 0
  br i1 %cmp.i.i.i.i, label %if.then2.i.i.i.i, label %_ZN15model_evaluator7is_trueEP4expr.exit

if.then2.i.i.i.i:                                 ; preds = %if.then.i.i.i.i
  invoke void @_ZN11ast_manager11delete_nodeEP3ast(ptr noundef nonnull align 8 dereferenceable(976) %12, ptr noundef nonnull %10)
          to label %_ZN15model_evaluator7is_trueEP4expr.exit unwind label %terminate.lpad.i.i

terminate.lpad.i.i:                               ; preds = %if.then2.i.i.i.i
  %14 = landingpad { ptr, i32 }
          catch ptr null
  %15 = extractvalue { ptr, i32 } %14, 0
  tail call void @__clang_call_terminate(ptr %15) #19
  unreachable

lpad.i:                                           ; preds = %for.body
  %16 = landingpad { ptr, i32 }
          cleanup
  call void @_ZN7obj_refI4expr11ast_managerED2Ev(ptr noundef nonnull align 8 dereferenceable(16) %tmp.i) #18
  resume { ptr, i32 } %16

_ZN15model_evaluator7is_trueEP4expr.exit:         ; preds = %land.end.i, %if.then.i.i.i.i, %if.then2.i.i.i.i
  call void @llvm.lifetime.end.p0(i64 16, ptr nonnull %tmp.i)
  %incdec.ptr = getelementptr inbounds i8, ptr %__begin1.07, i64 8
  %cmp.not = icmp ne ptr %incdec.ptr, %add.ptr.i
  %or.cond.not = select i1 %11, i1 %cmp.not, i1 false
  br i1 %or.cond.not, label %for.body, label %return

return:                                           ; preds = %_ZN15model_evaluator7is_trueEP4expr.exit, %entry, %_ZNK15ref_vector_coreI4expr19ref_manager_wrapperIS0_11ast_managerEE3endEv.exit
  %cmp.not.lcssa = phi i1 [ true, %_ZNK15ref_vector_coreI4expr19ref_manager_wrapperIS0_11ast_managerEE3endEv.exit ], [ true, %entry ], [ %11, %_ZN15model_evaluator7is_trueEP4expr.exit ]
  ret i1 %cmp.not.lcssa
}